target datalayout = "e-m:e-p270:32:32-p271:32:32-p272:64:64-i64:64-i128:128-f80:128-n8:16:32:64-S128"
target triple = "x86_64-pc-linux-gnu"

%struct.BackendGlobalData = type <{ ptr, ptr, i8, i8, i8, i8, i8, i8, i8, i8, i8, [3 x i8], i32, ptr, ptr, ptr, ptr, ptr, ptr, ptr, ptr, ptr, ptr, ptr, ptr, ptr, i32, %struct.jvmtiCapabilities, i8, [3 x i8], %struct.jvmtiEventCallbacks, ptr, ptr, ptr, ptr, ptr, ptr, ptr, i32, [4 x i8], ptr, i64, i32, [4 x i8], ptr, i32, i32, i8, i8, [6 x i8] }>
%struct.jvmtiCapabilities = type { i64, i64 }
%struct.jvmtiEventCallbacks = type { ptr, ptr, ptr, ptr, ptr, ptr, ptr, ptr, ptr, ptr, ptr, ptr, ptr, ptr, ptr, ptr, ptr, ptr, ptr, ptr, ptr, ptr, ptr, ptr, ptr, ptr, ptr, ptr, ptr, ptr, ptr, ptr, ptr, ptr, ptr, ptr, ptr, ptr, ptr }
%struct.jvmtiInterface_1_ = type { ptr, ptr, ptr, ptr, ptr, ptr, ptr, ptr, ptr, ptr, ptr, ptr, ptr, ptr, ptr, ptr, ptr, ptr, ptr, ptr, ptr, ptr, ptr, ptr, ptr, ptr, ptr, ptr, ptr, ptr, ptr, ptr, ptr, ptr, ptr, ptr, ptr, ptr, ptr, ptr, ptr, ptr, ptr, ptr, ptr, ptr, ptr, ptr, ptr, ptr, ptr, ptr, ptr, ptr, ptr, ptr, ptr, ptr, ptr, ptr, ptr, ptr, ptr, ptr, ptr, ptr, ptr, ptr, ptr, ptr, ptr, ptr, ptr, ptr, ptr, ptr, ptr, ptr, ptr, ptr, ptr, ptr, ptr, ptr, ptr, ptr, ptr, ptr, ptr, ptr, ptr, ptr, ptr, ptr, ptr, ptr, ptr, ptr, ptr, ptr, ptr, ptr, ptr, ptr, ptr, ptr, ptr, ptr, ptr, ptr, ptr, ptr, ptr, ptr, ptr, ptr, ptr, ptr, ptr, ptr, ptr, ptr, ptr, ptr, ptr, ptr, ptr, ptr, ptr, ptr, ptr, ptr, ptr, ptr, ptr, ptr, ptr, ptr, ptr, ptr, ptr, ptr, ptr, ptr, ptr, ptr, ptr, ptr, ptr, ptr, ptr, ptr, ptr, ptr, ptr, ptr }

@.str.5 = private unnamed_addr constant [56 x i8] c"src/jdk.jdwp.agent/share/native/libjdwp/threadControl.c\00", align 1
@gdata = external global ptr, align 8
@.str.7 = private unnamed_addr constant [5 x i8] c"%s()\00", align 1
@.str.13 = private unnamed_addr constant [6 x i8] c"JVMTI\00", align 1
@.str.37 = private unnamed_addr constant [17 x i8] c"GetCurrentThread\00", align 1

; Function Attrs: nounwind uwtable
define hidden ptr @threadControl_currentThread() #0 {
  %1 = alloca ptr, align 8
  %2 = alloca i32, align 4
  store ptr null, ptr %1, align 8
  %3 = load ptr, ptr @gdata, align 8
  %4 = getelementptr inbounds %struct.BackendGlobalData, ptr %3, i32 0, i32 38
  %5 = load i32, ptr %4, align 8
  %6 = and i32 %5, 4
  %7 = icmp ne i32 %6, 0
  br i1 %7, label %8, label %9

8:                                                ; preds = %0
  call void @log_message_begin(ptr noundef @.str.13, ptr noundef @.str.5, i32 noundef 2501)
  call void (ptr, ...) @log_message_end(ptr noundef @.str.7, ptr noundef @.str.37)
  br label %10

9:                                                ; preds = %0
  br label %10

10:                                               ; preds = %9, %8
  %11 = load ptr, ptr @gdata, align 8
  %12 = getelementptr inbounds %struct.BackendGlobalData, ptr %11, i32 0, i32 0
  %13 = load ptr, ptr %12, align 8
  %14 = load ptr, ptr %13, align 8
  %15 = getelementptr inbounds %struct.jvmtiInterface_1_, ptr %14, i32 0, i32 17
  %16 = load ptr, ptr %15, align 8
  %17 = load ptr, ptr @gdata, align 8
  %18 = getelementptr inbounds %struct.BackendGlobalData, ptr %17, i32 0, i32 0
  %19 = load ptr, ptr %18, align 8
  %20 = call i32 %16(ptr noundef %19, ptr noundef %1)
  store i32 %20, ptr %2, align 4
  %21 = load ptr, ptr %1, align 8
  ret ptr %21
}