; Function Attrs: nounwind uwtable
define hidden ptr @threadControl_currentThread() local_unnamed_addr #0 {
  %1 = alloca ptr, align 8
  store ptr null, ptr %1, align 8
  %2 = load ptr, ptr @gdata, align 8
  %3 = getelementptr inbounds i8, ptr %2, i64 528
  %4 = load i32, ptr %3, align 8
  %5 = and i32 %4, 4
  %.not = icmp eq i32 %5, 0
  br i1 %.not, label %7, label %6

6:                                                ; preds = %0
  tail call void @log_message_begin(ptr noundef nonnull @.str.13, ptr noundef nonnull @.str.5, i32 noundef 2501) #6
  tail call void (ptr, ...) @log_message_end(ptr noundef nonnull @.str.7, ptr noundef nonnull @.str.37) #6
  %.pre = load ptr, ptr @gdata, align 8
  br label %7

7:                                                ; preds = %0, %6
  %8 = phi ptr [ %2, %0 ], [ %.pre, %6 ]
  %9 = load ptr, ptr %8, align 8
  %10 = load ptr, ptr %9, align 8
  %11 = getelementptr inbounds i8, ptr %10, i64 136
  %12 = load ptr, ptr %11, align 8
  %13 = call i32 %12(ptr noundef nonnull %9, ptr noundef nonnull %1) #6
  %14 = load ptr, ptr %1, align 8
  ret ptr %14
}